; Function Attrs: nounwind uwtable
define ptr @l_Lean_Compiler_LCNF_allFVarM_go___rarg(ptr noundef %0, ptr noundef %1, ptr noundef %2) #0 {
  %4 = tail call ptr @lean_apply_1(ptr noundef %1, ptr noundef %2) #4
  %5 = getelementptr inbounds nuw i8, ptr %0, i64 16
  %6 = load ptr, ptr %5, align 8, !tbaa !4
  %7 = ptrtoint ptr %6 to i64
  %8 = and i64 %7, 1
  %.not = icmp eq i64 %8, 0
  br i1 %.not, label %9, label %lean_inc.exit18

9:                                                ; preds = %3
  %.val.i = load i32, ptr %6, align 4, !tbaa !8
  %10 = icmp sgt i32 %.val.i, 0
  br i1 %10, label %11, label %13, !prof !13

11:                                               ; preds = %9
  %12 = add nuw i32 %.val.i, 1
  store i32 %12, ptr %6, align 4, !tbaa !8
  br label %lean_inc.exit18

13:                                               ; preds = %9
  %.not.i = icmp eq i32 %.val.i, 0
  br i1 %.not.i, label %lean_inc.exit18, label %14

14:                                               ; preds = %13
  tail call void @lean_inc_ref_cold(ptr noundef nonnull %6) #4
  br label %lean_inc.exit18

lean_inc.exit18:                                  ; preds = %14, %13, %11, %3
  %15 = ptrtoint ptr %0 to i64
  %16 = and i64 %15, 1
  %.not26 = icmp eq i64 %16, 0
  br i1 %.not26, label %17, label %lean_inc.exit17

17:                                               ; preds = %lean_inc.exit18
  %.val.i19 = load i32, ptr %0, align 4, !tbaa !8
  %18 = icmp sgt i32 %.val.i19, 0
  br i1 %18, label %19, label %21, !prof !13

19:                                               ; preds = %17
  %20 = add nuw i32 %.val.i19, 1
  store i32 %20, ptr %0, align 4, !tbaa !8
  br label %lean_inc.exit17

21:                                               ; preds = %17
  %.not.i20 = icmp eq i32 %.val.i19, 0
  br i1 %.not.i20, label %lean_inc.exit17, label %22

22:                                               ; preds = %21
  tail call void @lean_inc_ref_cold(ptr noundef nonnull %0) #4
  br label %lean_inc.exit17

lean_inc.exit17:                                  ; preds = %22, %21, %19, %lean_inc.exit18
  tail call void @lean_inc_heartbeat() #4
  %23 = tail call noalias ptr @mi_malloc_small(i64 noundef 32) #4
  %24 = icmp eq ptr %23, null
  br i1 %24, label %25, label %lean_alloc_closure.exit

25:                                               ; preds = %lean_inc.exit17
  tail call void @lean_internal_panic_out_of_memory() #5
  unreachable

lean_alloc_closure.exit:                          ; preds = %lean_inc.exit17
  %26 = getelementptr inbounds nuw i8, ptr %23, i64 4
  store i32 1, ptr %23, align 4, !tbaa !8
  store i32 -184549344, ptr %26, align 4
  %27 = getelementptr inbounds nuw i8, ptr %23, i64 8
  store ptr @l_Lean_Compiler_LCNF_anyFVarM_go___rarg___lambda__1___boxed, ptr %27, align 8, !tbaa !4
  %28 = getelementptr inbounds nuw i8, ptr %23, i64 16
  store i16 2, ptr %28, align 8, !tbaa !11
  %29 = getelementptr inbounds nuw i8, ptr %23, i64 18
  store i16 1, ptr %29, align 2, !tbaa !11
  %30 = getelementptr inbounds nuw i8, ptr %23, i64 24
  store ptr %0, ptr %30, align 8, !tbaa !4
  br i1 %.not, label %31, label %lean_inc.exit

31:                                               ; preds = %lean_alloc_closure.exit
  %.val.i22 = load i32, ptr %6, align 4, !tbaa !8
  %32 = icmp sgt i32 %.val.i22, 0
  br i1 %32, label %33, label %35, !prof !13

33:                                               ; preds = %31
  %34 = add nuw i32 %.val.i22, 1
  store i32 %34, ptr %6, align 4, !tbaa !8
  br label %lean_inc.exit

35:                                               ; preds = %31
  %.not.i23 = icmp eq i32 %.val.i22, 0
  br i1 %.not.i23, label %lean_inc.exit, label %36

36:                                               ; preds = %35
  tail call void @lean_inc_ref_cold(ptr noundef nonnull %6) #4
  br label %lean_inc.exit

lean_inc.exit:                                    ; preds = %36, %35, %33, %lean_alloc_closure.exit
  %37 = tail call ptr @lean_apply_4(ptr noundef %6, ptr noundef nonnull inttoptr (i64 1 to ptr), ptr noundef nonnull inttoptr (i64 1 to ptr), ptr noundef %4, ptr noundef nonnull %23) #4
  tail call void @lean_inc_heartbeat() #4
  %38 = tail call noalias ptr @mi_malloc_small(i64 noundef 32) #4
  %39 = icmp eq ptr %38, null
  br i1 %39, label %40, label %lean_alloc_closure.exit25

40:                                               ; preds = %lean_inc.exit
  tail call void @lean_internal_panic_out_of_memory() #5
  unreachable

lean_alloc_closure.exit25:                        ; preds = %lean_inc.exit
  %41 = getelementptr inbounds nuw i8, ptr %38, i64 4
  store i32 1, ptr %38, align 4, !tbaa !8
  store i32 -184549344, ptr %41, align 4
  %42 = getelementptr inbounds nuw i8, ptr %38, i64 8
  store ptr @l_Lean_Compiler_LCNF_allFVarM_go___rarg___lambda__1___boxed, ptr %42, align 8, !tbaa !4
  %43 = getelementptr inbounds nuw i8, ptr %38, i64 16
  store i16 2, ptr %43, align 8, !tbaa !11
  %44 = getelementptr inbounds nuw i8, ptr %38, i64 18
  store i16 1, ptr %44, align 2, !tbaa !11
  %45 = getelementptr inbounds nuw i8, ptr %38, i64 24
  store ptr %0, ptr %45, align 8, !tbaa !4
  %46 = tail call ptr @lean_apply_4(ptr noundef %6, ptr noundef nonnull inttoptr (i64 1 to ptr), ptr noundef nonnull inttoptr (i64 1 to ptr), ptr noundef %37, ptr noundef nonnull %38) #4
  ret ptr %46
}